target datalayout = "e-m:e-p270:32:32-p271:32:32-p272:64:64-i64:64-i128:128-f80:128-n8:16:32:64-S128"
target triple = "x86_64-pc-linux-gnu"

%"struct.Luau::Field" = type { %"class.std::shared_ptr", %"class.std::__cxx11::basic_string" }
%"class.std::shared_ptr" = type { %"class.std::__shared_ptr" }
%"class.std::__shared_ptr" = type { ptr, %"class.std::__shared_count" }
%"class.std::__shared_count" = type { ptr }
%"class.std::__cxx11::basic_string" = type { %"struct.std::__cxx11::basic_string<char>::_Alloc_hider", i64, %union.anon }
%"struct.std::__cxx11::basic_string<char>::_Alloc_hider" = type { ptr }
%union.anon = type { i64, [8 x i8] }
%"class.Luau::Variant" = type { i32, [4 x i8], [48 x i8] }
%"struct.std::hash" = type { i8 }
%"struct.std::hash.0" = type { i8 }
%"struct.std::hash.9" = type { i8 }
%"struct.std::hash.11" = type { i8 }
%"class.std::basic_string_view" = type { i64, ptr }
%"struct.Luau::Symbol" = type { ptr, %"struct.Luau::AstName" }
%"struct.Luau::AstName" = type { ptr }

; Function Attrs: mustprogress nounwind uwtable
define linkonce_odr dso_local noundef i64 @_ZNKSt17basic_string_viewIcSt11char_traitsIcEE6lengthEv(ptr noundef nonnull align 8 dereferenceable(16) %0) #4 comdat align 2 {
  %2 = alloca ptr, align 8
  store ptr %0, ptr %2, align 8, !tbaa !134
  %3 = load ptr, ptr %2, align 8
  %4 = getelementptr inbounds nuw %"class.std::basic_string_view", ptr %3, i32 0, i32 0
  %5 = load i64, ptr %4, align 8, !tbaa !136
  ret i64 %5
}

; Function Attrs: mustprogress nounwind uwtable
define linkonce_odr dso_local noundef ptr @_ZNKSt17basic_string_viewIcSt11char_traitsIcEE4dataEv(ptr noundef nonnull align 8 dereferenceable(16) %0) #4 comdat align 2 {
  %2 = alloca ptr, align 8
  store ptr %0, ptr %2, align 8, !tbaa !134
  %3 = load ptr, ptr %2, align 8
  %4 = getelementptr inbounds nuw %"class.std::basic_string_view", ptr %3, i32 0, i32 1
  %5 = load ptr, ptr %4, align 8, !tbaa !138
  ret ptr %5
}

; Function Attrs: mustprogress nounwind uwtable
define linkonce_odr dso_local noundef i64 @_ZNSt11char_traitsIcE6lengthEPKc(ptr noundef %0) #4 comdat align 2 {
  %2 = alloca ptr, align 8
  store ptr %0, ptr %2, align 8, !tbaa !90
  %3 = load ptr, ptr %2, align 8, !tbaa !90
  %4 = call i64 @strlen(ptr noundef %3) #19
  ret i64 %4
}

; Function Attrs: mustprogress nounwind uwtable
define linkonce_odr dso_local noundef ptr @_ZNK4Luau7VariantIJNS_6SymbolENS_5FieldEEE6get_ifIS1_EEPKT_v(ptr noundef nonnull align 8 dereferenceable(56) %0) #4 comdat align 2 {
  %2 = alloca ptr, align 8
  %3 = alloca i32, align 4
  store ptr %0, ptr %2, align 8, !tbaa !17
  %4 = load ptr, ptr %2, align 8
  call void @llvm.lifetime.start.p0(i64 4, ptr %3) #19
  store i32 0, ptr %3, align 4, !tbaa !4
  %5 = getelementptr inbounds nuw %"class.Luau::Variant", ptr %4, i32 0, i32 0
  %6 = load i32, ptr %5, align 8, !tbaa !19
  %7 = icmp eq i32 0, %6
  br i1 %7, label %8, label %10

8:                                                ; preds = %1
  %9 = getelementptr inbounds nuw %"class.Luau::Variant", ptr %4, i32 0, i32 2
  br label %11

10:                                               ; preds = %1
  br label %11

11:                                               ; preds = %10, %8
  %12 = phi ptr [ %9, %8 ], [ null, %10 ]
  call void @llvm.lifetime.end.p0(i64 4, ptr %3) #19
  ret ptr %12
}

; Function Attrs: mustprogress nounwind uwtable
define available_externally noundef ptr @_ZNKSt7__cxx1112basic_stringIcSt11char_traitsIcESaIcEE7_M_dataEv(ptr noundef nonnull align 8 dereferenceable(32) %0) #4 align 2 {
  %2 = alloca ptr, align 8
  store ptr %0, ptr %2, align 8, !tbaa !11
  %3 = load ptr, ptr %2, align 8
  %4 = getelementptr inbounds nuw %"class.std::__cxx11::basic_string", ptr %3, i32 0, i32 0
  %5 = getelementptr inbounds nuw %"struct.std::__cxx11::basic_string<char>::_Alloc_hider", ptr %4, i32 0, i32 0
  %6 = load ptr, ptr %5, align 8, !tbaa !129
  ret ptr %6
}

; Function Attrs: mustprogress nounwind uwtable
define linkonce_odr dso_local noundef ptr @_ZNK4Luau7VariantIJNS_6SymbolENS_5FieldEEE6get_ifIS2_EEPKT_v(ptr noundef nonnull align 8 dereferenceable(56) %0) #4 comdat align 2 {
  %2 = alloca ptr, align 8
  %3 = alloca i32, align 4
  store ptr %0, ptr %2, align 8, !tbaa !17
  %4 = load ptr, ptr %2, align 8
  call void @llvm.lifetime.start.p0(i64 4, ptr %3) #19
  store i32 1, ptr %3, align 4, !tbaa !4
  %5 = getelementptr inbounds nuw %"class.Luau::Variant", ptr %4, i32 0, i32 0
  %6 = load i32, ptr %5, align 8, !tbaa !19
  %7 = icmp eq i32 1, %6
  br i1 %7, label %8, label %10

8:                                                ; preds = %1
  %9 = getelementptr inbounds nuw %"class.Luau::Variant", ptr %4, i32 0, i32 2
  br label %11

10:                                               ; preds = %1
  br label %11

11:                                               ; preds = %10, %8
  %12 = phi ptr [ %9, %8 ], [ null, %10 ]
  call void @llvm.lifetime.end.p0(i64 4, ptr %3) #19
  ret ptr %12
}

; Function Attrs: mustprogress nounwind uwtable
define linkonce_odr dso_local noundef ptr @_ZNKSt12__shared_ptrIN4Luau7VariantIJNS0_6SymbolENS0_5FieldEEEELN9__gnu_cxx12_Lock_policyE2EE3getEv(ptr noundef nonnull align 8 dereferenceable(16) %0) #4 comdat align 2 {
  %2 = alloca ptr, align 8
  store ptr %0, ptr %2, align 8, !tbaa !40
  %3 = load ptr, ptr %2, align 8
  %4 = getelementptr inbounds nuw %"class.std::__shared_ptr", ptr %3, i32 0, i32 0
  %5 = load ptr, ptr %4, align 8, !tbaa !42
  ret ptr %5
}

; Function Attrs: mustprogress nounwind uwtable
define linkonce_odr dso_local noundef i64 @_ZNKSt4hashISt17basic_string_viewIcSt11char_traitsIcEEEclERKS3_(ptr noundef nonnull align 1 dereferenceable(1) %0, ptr noundef nonnull align 8 dereferenceable(16) %1) #4 comdat align 2 personality ptr @__gxx_personality_v0 {
  %3 = alloca ptr, align 8
  %4 = alloca ptr, align 8
  store ptr %0, ptr %3, align 8, !tbaa !132
  store ptr %1, ptr %4, align 8, !tbaa !134
  %5 = load ptr, ptr %4, align 8, !tbaa !134
  %6 = call noundef ptr @_ZNKSt17basic_string_viewIcSt11char_traitsIcEE4dataEv(ptr noundef nonnull align 8 dereferenceable(16) %5) #19
  %7 = load ptr, ptr %4, align 8, !tbaa !134
  %8 = call noundef i64 @_ZNKSt17basic_string_viewIcSt11char_traitsIcEE6lengthEv(ptr noundef nonnull align 8 dereferenceable(16) %7) #19
  %9 = invoke noundef i64 @_ZNSt10_Hash_impl4hashEPKvmm(ptr noundef %6, i64 noundef %8, i64 noundef 3339675911)
          to label %10 unwind label %11

10:                                               ; preds = %2
  ret i64 %9

11:                                               ; preds = %2
  %12 = landingpad { ptr, i32 }
          catch ptr null
  %13 = extractvalue { ptr, i32 } %12, 0
  call void @__clang_call_terminate(ptr %13) #20
  unreachable
}

; Function Attrs: mustprogress nounwind uwtable
define linkonce_odr dso_local void @_ZNSt17basic_string_viewIcSt11char_traitsIcEEC2EPKc(ptr noundef nonnull align 8 dereferenceable(16) %0, ptr noundef nonnull %1) unnamed_addr #4 comdat align 2 personality ptr @__gxx_personality_v0 {
  %3 = alloca ptr, align 8
  %4 = alloca ptr, align 8
  store ptr %0, ptr %3, align 8, !tbaa !134
  store ptr %1, ptr %4, align 8, !tbaa !90
  %5 = load ptr, ptr %3, align 8
  %6 = getelementptr inbounds nuw %"class.std::basic_string_view", ptr %5, i32 0, i32 0
  %7 = load ptr, ptr %4, align 8, !tbaa !90
  %8 = invoke noundef i64 @_ZNSt11char_traitsIcE6lengthEPKc(ptr noundef %7)
          to label %9 unwind label %12

9:                                                ; preds = %2
  store i64 %8, ptr %6, align 8, !tbaa !136
  %10 = getelementptr inbounds nuw %"class.std::basic_string_view", ptr %5, i32 0, i32 1
  %11 = load ptr, ptr %4, align 8, !tbaa !90
  store ptr %11, ptr %10, align 8, !tbaa !138
  ret void

12:                                               ; preds = %2
  %13 = landingpad { ptr, i32 }
          catch ptr null
  %14 = extractvalue { ptr, i32 } %13, 0
  call void @__clang_call_terminate(ptr %14) #20
  unreachable
}

; Function Attrs: mustprogress nounwind uwtable
define linkonce_odr dso_local noundef i64 @_ZNKSt4hashIPKN4Luau8AstLocalEEclES3_(ptr noundef nonnull align 1 dereferenceable(1) %0, ptr noundef %1) #4 comdat align 2 {
  %3 = alloca ptr, align 8
  %4 = alloca ptr, align 8
  store ptr %0, ptr %3, align 8, !tbaa !130
  store ptr %1, ptr %4, align 8, !tbaa !84
  %5 = load ptr, ptr %4, align 8, !tbaa !84
  %6 = ptrtoint ptr %5 to i64
  ret i64 %6
}

; Function Attrs: mustprogress uwtable
define linkonce_odr dso_local noundef ptr @_ZN4Luau6get_ifINS_6SymbolEJS1_NS_5FieldEEEEPKT_PKNS_7VariantIJDpT0_EEE(ptr noundef %0) #2 comdat {
  %2 = alloca ptr, align 8
  store ptr %0, ptr %2, align 8, !tbaa !17
  %3 = load ptr, ptr %2, align 8, !tbaa !17
  %4 = icmp ne ptr %3, null
  br i1 %4, label %5, label %8

5:                                                ; preds = %1
  %6 = load ptr, ptr %2, align 8, !tbaa !17
  %7 = call noundef ptr @_ZNK4Luau7VariantIJNS_6SymbolENS_5FieldEEE6get_ifIS1_EEPKT_v(ptr noundef nonnull align 8 dereferenceable(56) %6)
  br label %9

8:                                                ; preds = %1
  br label %9

9:                                                ; preds = %8, %5
  %10 = phi ptr [ %7, %5 ], [ null, %8 ]
  ret ptr %10
}

; Function Attrs: mustprogress uwtable
define linkonce_odr dso_local noundef i64 @_ZNSt10_Hash_impl4hashEPKvmm(ptr noundef %0, i64 noundef %1, i64 noundef %2) #2 comdat align 2 {
  %4 = alloca ptr, align 8
  %5 = alloca i64, align 8
  %6 = alloca i64, align 8
  store ptr %0, ptr %4, align 8, !tbaa !21
  store i64 %1, ptr %5, align 8, !tbaa !24
  store i64 %2, ptr %6, align 8, !tbaa !24
  %7 = load ptr, ptr %4, align 8, !tbaa !21
  %8 = load i64, ptr %5, align 8, !tbaa !24
  %9 = load i64, ptr %6, align 8, !tbaa !24
  %10 = call noundef i64 @_ZSt11_Hash_bytesPKvmm(ptr noundef %7, i64 noundef %8, i64 noundef %9)
  ret i64 %10
}

; Function Attrs: mustprogress nounwind uwtable
define available_externally noundef i64 @_ZNKSt7__cxx1112basic_stringIcSt11char_traitsIcESaIcEE6lengthEv(ptr noundef nonnull align 8 dereferenceable(32) %0) #4 align 2 {
  %2 = alloca ptr, align 8
  store ptr %0, ptr %2, align 8, !tbaa !11
  %3 = load ptr, ptr %2, align 8
  %4 = getelementptr inbounds nuw %"class.std::__cxx11::basic_string", ptr %3, i32 0, i32 1
  %5 = load i64, ptr %4, align 8, !tbaa !126
  ret i64 %5
}

; Function Attrs: mustprogress nounwind uwtable
define available_externally noundef ptr @_ZNKSt7__cxx1112basic_stringIcSt11char_traitsIcESaIcEE4dataEv(ptr noundef nonnull align 8 dereferenceable(32) %0) #4 align 2 personality ptr @__gxx_personality_v0 {
  %2 = alloca ptr, align 8
  store ptr %0, ptr %2, align 8, !tbaa !11
  %3 = load ptr, ptr %2, align 8
  %4 = invoke noundef ptr @_ZNKSt7__cxx1112basic_stringIcSt11char_traitsIcESaIcEE7_M_dataEv(ptr noundef nonnull align 8 dereferenceable(32) %3)
          to label %5 unwind label %6

5:                                                ; preds = %1
  ret ptr %4

6:                                                ; preds = %1
  %7 = landingpad { ptr, i32 }
          catch ptr null
  %8 = extractvalue { ptr, i32 } %7, 0
  call void @__clang_call_terminate(ptr %8) #20
  unreachable
}

; Function Attrs: mustprogress uwtable
define linkonce_odr dso_local noundef ptr @_ZN4Luau6get_ifINS_5FieldEJNS_6SymbolES1_EEEPKT_PKNS_7VariantIJDpT0_EEE(ptr noundef %0) #2 comdat {
  %2 = alloca ptr, align 8
  store ptr %0, ptr %2, align 8, !tbaa !17
  %3 = load ptr, ptr %2, align 8, !tbaa !17
  %4 = icmp ne ptr %3, null
  br i1 %4, label %5, label %8

5:                                                ; preds = %1
  %6 = load ptr, ptr %2, align 8, !tbaa !17
  %7 = call noundef ptr @_ZNK4Luau7VariantIJNS_6SymbolENS_5FieldEEE6get_ifIS2_EEPKT_v(ptr noundef nonnull align 8 dereferenceable(56) %6)
  br label %9

8:                                                ; preds = %1
  br label %9

9:                                                ; preds = %8, %5
  %10 = phi ptr [ %7, %5 ], [ null, %8 ]
  ret ptr %10
}

; Function Attrs: mustprogress uwtable
define dso_local noundef ptr @_ZN4Luau6baseofERKNS_7VariantIJNS_6SymbolENS_5FieldEEEE(ptr noundef nonnull align 8 dereferenceable(56) %0) #2 {
  %2 = alloca ptr, align 8
  %3 = alloca ptr, align 8
  %4 = alloca ptr, align 8
  %5 = alloca i32, align 4
  %6 = alloca ptr, align 8
  store ptr %0, ptr %3, align 8, !tbaa !17
  call void @llvm.lifetime.start.p0(i64 8, ptr %4) #19
  %7 = load ptr, ptr %3, align 8, !tbaa !17
  %8 = call noundef ptr @_ZN4Luau3getINS_5FieldEEEPKT_RKNS_7VariantIJNS_6SymbolES1_EEE(ptr noundef nonnull align 8 dereferenceable(56) %7)
  store ptr %8, ptr %4, align 8, !tbaa !8
  %9 = load ptr, ptr %4, align 8, !tbaa !8
  %10 = icmp ne ptr %9, null
  br i1 %10, label %11, label %15

11:                                               ; preds = %1
  %12 = load ptr, ptr %4, align 8, !tbaa !8
  %13 = getelementptr inbounds nuw %"struct.Luau::Field", ptr %12, i32 0, i32 0
  %14 = call noundef ptr @_ZNKSt12__shared_ptrIN4Luau7VariantIJNS0_6SymbolENS0_5FieldEEEELN9__gnu_cxx12_Lock_policyE2EE3getEv(ptr noundef nonnull align 8 dereferenceable(16) %13) #19
  store ptr %14, ptr %2, align 8
  store i32 1, ptr %5, align 4
  br label %16

15:                                               ; preds = %1
  store i32 0, ptr %5, align 4
  br label %16

16:                                               ; preds = %15, %11
  call void @llvm.lifetime.end.p0(i64 8, ptr %4) #19
  %17 = load i32, ptr %5, align 4
  switch i32 %17, label %23 [
    i32 0, label %18
    i32 1, label %21
  ]

18:                                               ; preds = %16
  call void @llvm.lifetime.start.p0(i64 8, ptr %6) #19
  %19 = load ptr, ptr %3, align 8, !tbaa !17
  %20 = call noundef ptr @_ZN4Luau3getINS_6SymbolEEEPKT_RKNS_7VariantIJS1_NS_5FieldEEEE(ptr noundef nonnull align 8 dereferenceable(56) %19)
  store ptr %20, ptr %6, align 8, !tbaa !26
  store ptr null, ptr %2, align 8
  store i32 1, ptr %5, align 4
  call void @llvm.lifetime.end.p0(i64 8, ptr %6) #19
  br label %21

21:                                               ; preds = %18, %16
  %22 = load ptr, ptr %2, align 8
  ret ptr %22

23:                                               ; preds = %16
  unreachable
}

; Function Attrs: mustprogress nounwind uwtable
define linkonce_odr dso_local noundef i64 @_ZNKSt4hashIN4Luau6SymbolEEclERKS1_(ptr noundef nonnull align 1 dereferenceable(1) %0, ptr noundef nonnull align 8 dereferenceable(16) %1) #4 comdat align 2 {
  %3 = alloca ptr, align 8
  %4 = alloca ptr, align 8
  %5 = alloca %"struct.std::hash.9", align 1
  %6 = alloca %"struct.std::hash.11", align 1
  %7 = alloca %"class.std::basic_string_view", align 8
  store ptr %0, ptr %3, align 8, !tbaa !32
  store ptr %1, ptr %4, align 8, !tbaa !26
  call void @llvm.lifetime.start.p0(i64 1, ptr %5) #19
  %8 = load ptr, ptr %4, align 8, !tbaa !26
  %9 = getelementptr inbounds nuw %"struct.Luau::Symbol", ptr %8, i32 0, i32 0
  %10 = load ptr, ptr %9, align 8, !tbaa !34
  %11 = call noundef i64 @_ZNKSt4hashIPKN4Luau8AstLocalEEclES3_(ptr noundef nonnull align 1 dereferenceable(1) %5, ptr noundef %10) #19
  %12 = load ptr, ptr %4, align 8, !tbaa !26
  %13 = getelementptr inbounds nuw %"struct.Luau::Symbol", ptr %12, i32 0, i32 1
  %14 = getelementptr inbounds nuw %"struct.Luau::AstName", ptr %13, i32 0, i32 0
  %15 = load ptr, ptr %14, align 8, !tbaa !39
  %16 = icmp ne ptr %15, null
  call void @llvm.lifetime.start.p0(i64 1, ptr %6) #19
  call void @llvm.lifetime.start.p0(i64 16, ptr %7) #19
  br i1 %16, label %17, label %23

17:                                               ; preds = %2
  %18 = load ptr, ptr %4, align 8, !tbaa !26
  %19 = getelementptr inbounds nuw %"struct.Luau::Symbol", ptr %18, i32 0, i32 1
  %20 = getelementptr inbounds nuw %"struct.Luau::AstName", ptr %19, i32 0, i32 0
  %21 = load ptr, ptr %20, align 8, !tbaa !39
  call void @_ZNSt17basic_string_viewIcSt11char_traitsIcEEC2EPKc(ptr noundef nonnull align 8 dereferenceable(16) %7, ptr noundef %21) #19
  %22 = call noundef i64 @_ZNKSt4hashISt17basic_string_viewIcSt11char_traitsIcEEEclERKS3_(ptr noundef nonnull align 1 dereferenceable(1) %6, ptr noundef nonnull align 8 dereferenceable(16) %7) #19
  br label %24

23:                                               ; preds = %2
  br label %24

24:                                               ; preds = %23, %17
  %25 = phi i64 [ %22, %17 ], [ 0, %23 ]
  %26 = xor i64 %11, %25
  call void @llvm.lifetime.end.p0(i64 16, ptr %7) #19
  call void @llvm.lifetime.end.p0(i64 1, ptr %6) #19
  call void @llvm.lifetime.end.p0(i64 1, ptr %5) #19
  ret i64 %26
}

; Function Attrs: mustprogress uwtable
define linkonce_odr dso_local noundef ptr @_ZN4Luau3getINS_6SymbolEEEPKT_RKNS_7VariantIJS1_NS_5FieldEEEE(ptr noundef nonnull align 8 dereferenceable(56) %0) #2 comdat {
  %2 = alloca ptr, align 8
  store ptr %0, ptr %2, align 8, !tbaa !17
  %3 = load ptr, ptr %2, align 8, !tbaa !17
  %4 = call noundef ptr @_ZN4Luau6get_ifINS_6SymbolEJS1_NS_5FieldEEEEPKT_PKNS_7VariantIJDpT0_EEE(ptr noundef %3)
  ret ptr %4
}

; Function Attrs: mustprogress nounwind uwtable
define linkonce_odr dso_local noundef i64 @_ZNKSt4hashINSt7__cxx1112basic_stringIcSt11char_traitsIcESaIcEEEEclERKS5_(ptr noundef nonnull align 1 dereferenceable(1) %0, ptr noundef nonnull align 8 dereferenceable(32) %1) #4 comdat align 2 personality ptr @__gxx_personality_v0 {
  %3 = alloca ptr, align 8
  %4 = alloca ptr, align 8
  store ptr %0, ptr %3, align 8, !tbaa !30
  store ptr %1, ptr %4, align 8, !tbaa !11
  %5 = load ptr, ptr %4, align 8, !tbaa !11
  %6 = call noundef ptr @_ZNKSt7__cxx1112basic_stringIcSt11char_traitsIcESaIcEE4dataEv(ptr noundef nonnull align 8 dereferenceable(32) %5) #19
  %7 = load ptr, ptr %4, align 8, !tbaa !11
  %8 = call noundef i64 @_ZNKSt7__cxx1112basic_stringIcSt11char_traitsIcESaIcEE6lengthEv(ptr noundef nonnull align 8 dereferenceable(32) %7) #19
  %9 = invoke noundef i64 @_ZNSt10_Hash_impl4hashEPKvmm(ptr noundef %6, i64 noundef %8, i64 noundef 3339675911)
          to label %10 unwind label %11

10:                                               ; preds = %2
  ret i64 %9

11:                                               ; preds = %2
  %12 = landingpad { ptr, i32 }
          catch ptr null
  %13 = extractvalue { ptr, i32 } %12, 0
  call void @__clang_call_terminate(ptr %13) #20
  unreachable
}

; Function Attrs: mustprogress uwtable
define linkonce_odr dso_local noundef ptr @_ZN4Luau3getINS_5FieldEEEPKT_RKNS_7VariantIJNS_6SymbolES1_EEE(ptr noundef nonnull align 8 dereferenceable(56) %0) #2 comdat {
  %2 = alloca ptr, align 8
  store ptr %0, ptr %2, align 8, !tbaa !17
  %3 = load ptr, ptr %2, align 8, !tbaa !17
  %4 = call noundef ptr @_ZN4Luau6get_ifINS_5FieldEJNS_6SymbolES1_EEEPKT_PKNS_7VariantIJDpT0_EEE(ptr noundef %3)
  ret ptr %4
}

; Function Attrs: mustprogress uwtable
define dso_local noundef i64 @_ZNK4Luau12LValueHasherclERKNS_7VariantIJNS_6SymbolENS_5FieldEEEE(ptr noundef nonnull align 1 dereferenceable(1) %0, ptr noundef nonnull align 8 dereferenceable(56) %1) #2 align 2 {
  %3 = alloca ptr, align 8
  %4 = alloca ptr, align 8
  %5 = alloca i64, align 8
  %6 = alloca i64, align 8
  %7 = alloca ptr, align 8
  %8 = alloca ptr, align 8
  %9 = alloca %"struct.std::hash", align 1
  %10 = alloca ptr, align 8
  %11 = alloca %"struct.std::hash.0", align 1
  store ptr %0, ptr %3, align 8, !tbaa !22
  store ptr %1, ptr %4, align 8, !tbaa !17
  call void @llvm.lifetime.start.p0(i64 8, ptr %5) #19
  store i64 0, ptr %5, align 8, !tbaa !24
  call void @llvm.lifetime.start.p0(i64 8, ptr %6) #19
  store i64 0, ptr %6, align 8, !tbaa !24
  call void @llvm.lifetime.start.p0(i64 8, ptr %7) #19
  %12 = load ptr, ptr %4, align 8, !tbaa !17
  store ptr %12, ptr %7, align 8, !tbaa !17
  br label %13

13:                                               ; preds = %44, %2
  %14 = load ptr, ptr %7, align 8, !tbaa !17
  %15 = icmp ne ptr %14, null
  br i1 %15, label %16, label %47

16:                                               ; preds = %13
  call void @llvm.lifetime.start.p0(i64 8, ptr %8) #19
  %17 = load ptr, ptr %7, align 8, !tbaa !17
  %18 = call noundef ptr @_ZN4Luau3getINS_5FieldEEEPKT_RKNS_7VariantIJNS_6SymbolES1_EEE(ptr noundef nonnull align 8 dereferenceable(56) %17)
  store ptr %18, ptr %8, align 8, !tbaa !8
  %19 = load ptr, ptr %8, align 8, !tbaa !8
  %20 = icmp ne ptr %19, null
  br i1 %20, label %21, label %31

21:                                               ; preds = %16
  call void @llvm.lifetime.start.p0(i64 1, ptr %9) #19
  %22 = load ptr, ptr %8, align 8, !tbaa !8
  %23 = getelementptr inbounds nuw %"struct.Luau::Field", ptr %22, i32 0, i32 1
  %24 = call noundef i64 @_ZNKSt4hashINSt7__cxx1112basic_stringIcSt11char_traitsIcESaIcEEEEclERKS5_(ptr noundef nonnull align 1 dereferenceable(1) %9, ptr noundef nonnull align 8 dereferenceable(32) %23) #19
  %25 = shl i64 %24, 1
  %26 = load i64, ptr %6, align 8, !tbaa !24
  %27 = add i64 %26, 1
  store i64 %27, ptr %6, align 8, !tbaa !24
  %28 = lshr i64 %25, %27
  %29 = load i64, ptr %5, align 8, !tbaa !24
  %30 = xor i64 %29, %28
  store i64 %30, ptr %5, align 8, !tbaa !24
  call void @llvm.lifetime.end.p0(i64 1, ptr %9) #19
  br label %44

31:                                               ; preds = %16
  call void @llvm.lifetime.start.p0(i64 8, ptr %10) #19
  %32 = load ptr, ptr %7, align 8, !tbaa !17
  %33 = call noundef ptr @_ZN4Luau3getINS_6SymbolEEEPKT_RKNS_7VariantIJS1_NS_5FieldEEEE(ptr noundef nonnull align 8 dereferenceable(56) %32)
  store ptr %33, ptr %10, align 8, !tbaa !26
  %34 = load ptr, ptr %10, align 8, !tbaa !26
  %35 = icmp ne ptr %34, null
  br i1 %35, label %36, label %42

36:                                               ; preds = %31
  call void @llvm.lifetime.start.p0(i64 1, ptr %11) #19
  %37 = load ptr, ptr %10, align 8, !tbaa !26
  %38 = call noundef i64 @_ZNKSt4hashIN4Luau6SymbolEEclERKS1_(ptr noundef nonnull align 1 dereferenceable(1) %11, ptr noundef nonnull align 8 dereferenceable(16) %37) #19
  %39 = shl i64 %38, 1
  %40 = load i64, ptr %5, align 8, !tbaa !24
  %41 = xor i64 %40, %39
  store i64 %41, ptr %5, align 8, !tbaa !24
  call void @llvm.lifetime.end.p0(i64 1, ptr %11) #19
  br label %43

42:                                               ; preds = %31
  br label %43

43:                                               ; preds = %42, %36
  call void @llvm.lifetime.end.p0(i64 8, ptr %10) #19
  br label %44

44:                                               ; preds = %43, %21
  call void @llvm.lifetime.end.p0(i64 8, ptr %8) #19
  %45 = load ptr, ptr %7, align 8, !tbaa !17
  %46 = call noundef ptr @_ZN4Luau6baseofERKNS_7VariantIJNS_6SymbolENS_5FieldEEEE(ptr noundef nonnull align 8 dereferenceable(56) %45)
  store ptr %46, ptr %7, align 8, !tbaa !17
  br label %13, !llvm.loop !28

47:                                               ; preds = %13
  %48 = load i64, ptr %5, align 8, !tbaa !24
  call void @llvm.lifetime.end.p0(i64 8, ptr %7) #19
  call void @llvm.lifetime.end.p0(i64 8, ptr %6) #19
  call void @llvm.lifetime.end.p0(i64 8, ptr %5) #19
  ret i64 %48
}