; Function Attrs: mustprogress nounwind uwtable
define dso_local noundef i64 @_ZNK4Luau12LValueHasherclERKNS_7VariantIJNS_6SymbolENS_5FieldEEEE(ptr nonnull readnone align 1 captures(none) %0, ptr noundef nonnull readonly align 8 captures(none) dereferenceable(56) %1) local_unnamed_addr #3 align 2 personality ptr @__gxx_personality_v0 {
  br label %3

3:                                                ; preds = %2, %select.unfold
  %.026 = phi i64 [ 0, %2 ], [ %.1, %select.unfold ]
  %.01225 = phi i64 [ 0, %2 ], [ %.113, %select.unfold ]
  %.01424 = phi ptr [ %1, %2 ], [ %36, %select.unfold ]
  %4 = load i32, ptr %.01424, align 8, !tbaa !20
  %5 = getelementptr inbounds nuw i8, ptr %.01424, i64 8
  switch i32 %4, label %select.unfold [
    i32 1, label %6
    i32 0, label %19
  ]

6:                                                ; preds = %3
  %7 = getelementptr inbounds nuw i8, ptr %.01424, i64 24
  %8 = load ptr, ptr %7, align 8, !tbaa !14
  %9 = getelementptr inbounds nuw i8, ptr %.01424, i64 32
  %10 = load i64, ptr %9, align 8, !tbaa !8
  %11 = invoke noundef i64 @_ZSt11_Hash_bytesPKvmm(ptr noundef %8, i64 noundef %10, i64 noundef 3339675911)
          to label %_ZNKSt4hashINSt7__cxx1112basic_stringIcSt11char_traitsIcESaIcEEEEclERKS5_.exit unwind label %12

12:                                               ; preds = %6
  %13 = landingpad { ptr, i32 }
          catch ptr null
  %14 = extractvalue { ptr, i32 } %13, 0
  tail call void @__clang_call_terminate(ptr %14) #21
  unreachable

_ZNKSt4hashINSt7__cxx1112basic_stringIcSt11char_traitsIcESaIcEEEEclERKS5_.exit: ; preds = %6
  %15 = shl i64 %11, 1
  %16 = add i64 %.01225, 1
  %17 = lshr i64 %15, %16
  %18 = xor i64 %17, %.026
  br label %select.unfold

19:                                               ; preds = %3
  %20 = load ptr, ptr %5, align 8, !tbaa !23
  %21 = getelementptr inbounds nuw i8, ptr %.01424, i64 16
  %22 = load ptr, ptr %21, align 8, !tbaa !27
  %.not.i = icmp eq ptr %22, null
  br i1 %.not.i, label %_ZNKSt4hashIN4Luau6SymbolEEclERKS1_.exit, label %23

23:                                               ; preds = %19
  %24 = tail call noundef i64 @strlen(ptr noundef nonnull dereferenceable(1) %22) #22
  %25 = invoke noundef i64 @_ZSt11_Hash_bytesPKvmm(ptr noundef nonnull %22, i64 noundef %24, i64 noundef 3339675911)
          to label %_ZNKSt4hashIN4Luau6SymbolEEclERKS1_.exit unwind label %26

26:                                               ; preds = %23
  %27 = landingpad { ptr, i32 }
          catch ptr null
  %28 = extractvalue { ptr, i32 } %27, 0
  tail call void @__clang_call_terminate(ptr %28) #21
  unreachable

_ZNKSt4hashIN4Luau6SymbolEEclERKS1_.exit:         ; preds = %19, %23
  %29 = phi i64 [ 0, %19 ], [ %25, %23 ]
  %30 = ptrtoint ptr %20 to i64
  %31 = xor i64 %29, %30
  %32 = shl i64 %31, 1
  %33 = xor i64 %32, %.026
  br label %select.unfold

select.unfold:                                    ; preds = %3, %_ZNKSt4hashIN4Luau6SymbolEEclERKS1_.exit, %_ZNKSt4hashINSt7__cxx1112basic_stringIcSt11char_traitsIcESaIcEEEEclERKS5_.exit
  %.113 = phi i64 [ %16, %_ZNKSt4hashINSt7__cxx1112basic_stringIcSt11char_traitsIcESaIcEEEEclERKS5_.exit ], [ %.01225, %_ZNKSt4hashIN4Luau6SymbolEEclERKS1_.exit ], [ %.01225, %3 ]
  %.1 = phi i64 [ %18, %_ZNKSt4hashINSt7__cxx1112basic_stringIcSt11char_traitsIcESaIcEEEEclERKS5_.exit ], [ %33, %_ZNKSt4hashIN4Luau6SymbolEEclERKS1_.exit ], [ %.026, %3 ]
  %34 = load i32, ptr %.01424, align 8, !tbaa !20
  %35 = icmp ne i32 %34, 1
  %36 = load ptr, ptr %5, align 8
  %.not27 = icmp eq ptr %36, null
  %.not = select i1 %35, i1 true, i1 %.not27
  br i1 %.not, label %37, label %3

37:                                               ; preds = %select.unfold
  ret i64 %.1
}